; ModuleID = '40/2949.c'
source_filename = "40/2949.c"
target datalayout = "e-m:e-p270:32:32-p271:32:32-p272:64:64-i64:64-f80:128-n8:16:32:64-S128"
target triple = "x86_64-pc-linux-gnu"

@.str = private unnamed_addr constant [4 x i8] c"%lf\00", align 1
@.str.1 = private unnamed_addr constant [7 x i8] c"%.4lf\0A\00", align 1
@.str.2 = private unnamed_addr constant [15 x i8] c"Invalid input\0A\00", align 1

; Function Attrs: noinline nounwind uwtable
define dso_local i32 @main() #0 {
  %1 = alloca i32, align 4
  %2 = alloca i32, align 4
  %3 = alloca i32, align 4
  %4 = alloca i32, align 4
  %5 = alloca double, align 8
  %6 = alloca double, align 8
  %7 = alloca double, align 8
  %8 = alloca double, align 8
  %9 = alloca double, align 8
  %10 = alloca double, align 8
  %11 = alloca double, align 8
  %12 = alloca double, align 8
  %13 = alloca double, align 8
  store i32 0, i32* %1, align 4
  store double 0x400921FB4D12D84A, double* %13, align 8
  %14 = call i32 (i8*, ...) @__isoc99_scanf(i8* getelementptr inbounds ([4 x i8], [4 x i8]* @.str, i64 0, i64 0), double* %5)
  %15 = call i32 (i8*, ...) @__isoc99_scanf(i8* getelementptr inbounds ([4 x i8], [4 x i8]* @.str, i64 0, i64 0), double* %6)
  %16 = call i32 (i8*, ...) @__isoc99_scanf(i8* getelementptr inbounds ([4 x i8], [4 x i8]* @.str, i64 0, i64 0), double* %7)
  %17 = call i32 (i8*, ...) @__isoc99_scanf(i8* getelementptr inbounds ([4 x i8], [4 x i8]* @.str, i64 0, i64 0), double* %8)
  %18 = call i32 (i8*, ...) @__isoc99_scanf(i8* getelementptr inbounds ([4 x i8], [4 x i8]* @.str, i64 0, i64 0), double* %11)
  %19 = load double, double* %5, align 8
  %20 = load double, double* %6, align 8
  %21 = fadd double %19, %20
  %22 = load double, double* %7, align 8
  %23 = fadd double %21, %22
  %24 = load double, double* %8, align 8
  %25 = fadd double %23, %24
  %26 = fdiv double %25, 2.000000e+00
  store double %26, double* %9, align 8
  %27 = load double, double* %11, align 8
  %28 = fdiv double %27, 2.000000e+00
  %29 = fdiv double %28, 1.800000e+02
  %30 = load double, double* %13, align 8
  %31 = fmul double %29, %30
  store double %31, double* %12, align 8
  %32 = load double, double* %9, align 8
  %33 = load double, double* %5, align 8
  %34 = fsub double %32, %33
  %35 = load double, double* %9, align 8
  %36 = load double, double* %6, align 8
  %37 = fsub double %35, %36
  %38 = fmul double %34, %37
  %39 = load double, double* %9, align 8
  %40 = load double, double* %7, align 8
  %41 = fsub double %39, %40
  %42 = fmul double %38, %41
  %43 = load double, double* %9, align 8
  %44 = load double, double* %8, align 8
  %45 = fsub double %43, %44
  %46 = fmul double %42, %45
  %47 = load double, double* %5, align 8
  %48 = load double, double* %6, align 8
  %49 = fmul double %47, %48
  %50 = load double, double* %7, align 8
  %51 = fmul double %49, %50
  %52 = load double, double* %8, align 8
  %53 = fmul double %51, %52
  %54 = load double, double* %12, align 8
  %55 = call double @cos(double %54) #3
  %56 = fmul double %53, %55
  %57 = load double, double* %12, align 8
  %58 = call double @cos(double %57) #3
  %59 = fmul double %56, %58
  %60 = fsub double %46, %59
  %61 = fcmp oge double %60, 0.000000e+00
  br i1 %61, label %62, label %95

62:                                               ; preds = %0
  %63 = load double, double* %9, align 8
  %64 = load double, double* %5, align 8
  %65 = fsub double %63, %64
  %66 = load double, double* %9, align 8
  %67 = load double, double* %6, align 8
  %68 = fsub double %66, %67
  %69 = fmul double %65, %68
  %70 = load double, double* %9, align 8
  %71 = load double, double* %7, align 8
  %72 = fsub double %70, %71
  %73 = fmul double %69, %72
  %74 = load double, double* %9, align 8
  %75 = load double, double* %8, align 8
  %76 = fsub double %74, %75
  %77 = fmul double %73, %76
  %78 = load double, double* %5, align 8
  %79 = load double, double* %6, align 8
  %80 = fmul double %78, %79
  %81 = load double, double* %7, align 8
  %82 = fmul double %80, %81
  %83 = load double, double* %8, align 8
  %84 = fmul double %82, %83
  %85 = load double, double* %12, align 8
  %86 = call double @cos(double %85) #3
  %87 = fmul double %84, %86
  %88 = load double, double* %12, align 8
  %89 = call double @cos(double %88) #3
  %90 = fmul double %87, %89
  %91 = fsub double %77, %90
  %92 = call double @sqrt(double %91) #3
  store double %92, double* %10, align 8
  %93 = load double, double* %10, align 8
  %94 = call i32 (i8*, ...) @printf(i8* getelementptr inbounds ([7 x i8], [7 x i8]* @.str.1, i64 0, i64 0), double %93)
  br label %97

95:                                               ; preds = %0
  %96 = call i32 (i8*, ...) @printf(i8* getelementptr inbounds ([15 x i8], [15 x i8]* @.str.2, i64 0, i64 0))
  br label %97

97:                                               ; preds = %95, %62
  %98 = load i32, i32* %1, align 4
  ret i32 %98
}

declare dso_local i32 @__isoc99_scanf(i8*, ...) #1

; Function Attrs: nounwind
declare dso_local double @cos(double) #2

; Function Attrs: nounwind
declare dso_local double @sqrt(double) #2

declare dso_local i32 @printf(i8*, ...) #1


!llvm.module.flags = !{!0}
!llvm.ident = !{!1}

!0 = !{i32 1, !"wchar_size", i32 4}
!1 = !{!"clang version 10.0.0-4ubuntu1 "}
